; Function Attrs: nounwind uwtable
define range(i32 0, 2) i32 @SRP_user_pwd_set0_sv(ptr noundef captures(none) %0, ptr noundef %1, ptr noundef %2) local_unnamed_addr #0 {
  %4 = getelementptr inbounds nuw i8, ptr %0, i64 8
  %5 = load ptr, ptr %4, align 8, !tbaa !3
  tail call void @BN_free(ptr noundef %5) #7
  %6 = getelementptr inbounds nuw i8, ptr %0, i64 16
  %7 = load ptr, ptr %6, align 8, !tbaa !10
  tail call void @BN_clear_free(ptr noundef %7) #7
  store ptr %2, ptr %6, align 8, !tbaa !10
  store ptr %1, ptr %4, align 8, !tbaa !3
  %.not = icmp ne ptr %1, null
  %8 = icmp ne ptr %2, null
  %narrow = and i1 %.not, %8
  %9 = zext i1 %narrow to i32
  ret i32 %9
}